; ModuleID = '58/687.c'
source_filename = "58/687.c"
target datalayout = "e-m:e-p270:32:32-p271:32:32-p272:64:64-i64:64-f80:128-n8:16:32:64-S128"
target triple = "x86_64-pc-linux-gnu"

@.str = private unnamed_addr constant [3 x i8] c"0\0A\00", align 1
@.str.1 = private unnamed_addr constant [3 x i8] c"1\0A\00", align 1

; Function Attrs: noinline nounwind uwtable
define dso_local i32 @main() #0 {
  %1 = alloca i32, align 4
  %2 = alloca [100 x i8], align 16
  %3 = alloca i32, align 4
  %4 = alloca i32, align 4
  %5 = alloca i32, align 4
  %6 = alloca [100 x i8], align 16
  %7 = alloca i32, align 4
  %8 = alloca i32, align 4
  store i32 0, i32* %1, align 4
  %9 = getelementptr inbounds [100 x i8], [100 x i8]* %2, i64 0, i64 0
  %10 = call i32 (i8*, ...) bitcast (i32 (...)* @gets to i32 (i8*, ...)*)(i8* %9)
  %11 = getelementptr inbounds [100 x i8], [100 x i8]* %2, i64 0, i64 0
  %12 = call i32 @atoi(i8* %11) #3
  store i32 %12, i32* %3, align 4
  store i32 0, i32* %4, align 4
  br label %13

13:                                               ; preds = %132, %0
  %14 = load i32, i32* %4, align 4
  %15 = load i32, i32* %3, align 4
  %16 = icmp slt i32 %14, %15
  br i1 %16, label %17, label %135

17:                                               ; preds = %13
  store i32 0, i32* %5, align 4
  %18 = getelementptr inbounds [100 x i8], [100 x i8]* %6, i64 0, i64 0
  %19 = call i32 (i8*, ...) bitcast (i32 (...)* @gets to i32 (i8*, ...)*)(i8* %18)
  %20 = getelementptr inbounds [100 x i8], [100 x i8]* %6, i64 0, i64 0
  %21 = call i64 @strlen(i8* %20) #3
  %22 = trunc i64 %21 to i32
  store i32 %22, i32* %7, align 4
  %23 = getelementptr inbounds [100 x i8], [100 x i8]* %6, i64 0, i64 0
  %24 = load i8, i8* %23, align 16
  %25 = sext i8 %24 to i32
  %26 = icmp sle i32 %25, 90
  br i1 %26, label %27, label %32

27:                                               ; preds = %17
  %28 = getelementptr inbounds [100 x i8], [100 x i8]* %6, i64 0, i64 0
  %29 = load i8, i8* %28, align 16
  %30 = sext i8 %29 to i32
  %31 = icmp sge i32 %30, 65
  br i1 %31, label %47, label %32

32:                                               ; preds = %27, %17
  %33 = getelementptr inbounds [100 x i8], [100 x i8]* %6, i64 0, i64 0
  %34 = load i8, i8* %33, align 16
  %35 = sext i8 %34 to i32
  %36 = icmp eq i32 %35, 95
  br i1 %36, label %47, label %37

37:                                               ; preds = %32
  %38 = getelementptr inbounds [100 x i8], [100 x i8]* %6, i64 0, i64 0
  %39 = load i8, i8* %38, align 16
  %40 = sext i8 %39 to i32
  %41 = icmp sge i32 %40, 97
  br i1 %41, label %42, label %121

42:                                               ; preds = %37
  %43 = getelementptr inbounds [100 x i8], [100 x i8]* %6, i64 0, i64 0
  %44 = load i8, i8* %43, align 16
  %45 = sext i8 %44 to i32
  %46 = icmp sle i32 %45, 122
  br i1 %46, label %47, label %121

47:                                               ; preds = %42, %32, %27
  store i32 0, i32* %8, align 4
  br label %48

48:                                               ; preds = %108, %47
  %49 = load i32, i32* %8, align 4
  %50 = load i32, i32* %7, align 4
  %51 = icmp slt i32 %49, %50
  br i1 %51, label %52, label %55

52:                                               ; preds = %48
  %53 = load i32, i32* %5, align 4
  %54 = icmp eq i32 %53, 0
  br label %55

55:                                               ; preds = %52, %48
  %56 = phi i1 [ false, %48 ], [ %54, %52 ]
  br i1 %56, label %57, label %111

57:                                               ; preds = %55
  %58 = load i32, i32* %8, align 4
  %59 = sext i32 %58 to i64
  %60 = getelementptr inbounds [100 x i8], [100 x i8]* %6, i64 0, i64 %59
  %61 = load i8, i8* %60, align 1
  %62 = sext i8 %61 to i32
  %63 = icmp slt i32 %62, 65
  br i1 %63, label %64, label %71

64:                                               ; preds = %57
  %65 = load i32, i32* %8, align 4
  %66 = sext i32 %65 to i64
  %67 = getelementptr inbounds [100 x i8], [100 x i8]* %6, i64 0, i64 %66
  %68 = load i8, i8* %67, align 1
  %69 = sext i8 %68 to i32
  %70 = icmp sgt i32 %69, 57
  br i1 %70, label %106, label %71

71:                                               ; preds = %64, %57
  %72 = load i32, i32* %8, align 4
  %73 = sext i32 %72 to i64
  %74 = getelementptr inbounds [100 x i8], [100 x i8]* %6, i64 0, i64 %73
  %75 = load i8, i8* %74, align 1
  %76 = sext i8 %75 to i32
  %77 = icmp slt i32 %76, 48
  br i1 %77, label %106, label %78

78:                                               ; preds = %71
  %79 = load i32, i32* %8, align 4
  %80 = sext i32 %79 to i64
  %81 = getelementptr inbounds [100 x i8], [100 x i8]* %6, i64 0, i64 %80
  %82 = load i8, i8* %81, align 1
  %83 = sext i8 %82 to i32
  %84 = icmp sgt i32 %83, 90
  br i1 %84, label %85, label %99

85:                                               ; preds = %78
  %86 = load i32, i32* %8, align 4
  %87 = sext i32 %86 to i64
  %88 = getelementptr inbounds [100 x i8], [100 x i8]* %6, i64 0, i64 %87
  %89 = load i8, i8* %88, align 1
  %90 = sext i8 %89 to i32
  %91 = icmp slt i32 %90, 97
  br i1 %91, label %92, label %99

92:                                               ; preds = %85
  %93 = load i32, i32* %8, align 4
  %94 = sext i32 %93 to i64
  %95 = getelementptr inbounds [100 x i8], [100 x i8]* %6, i64 0, i64 %94
  %96 = load i8, i8* %95, align 1
  %97 = sext i8 %96 to i32
  %98 = icmp ne i32 %97, 95
  br i1 %98, label %106, label %99

99:                                               ; preds = %92, %85, %78
  %100 = load i32, i32* %8, align 4
  %101 = sext i32 %100 to i64
  %102 = getelementptr inbounds [100 x i8], [100 x i8]* %6, i64 0, i64 %101
  %103 = load i8, i8* %102, align 1
  %104 = sext i8 %103 to i32
  %105 = icmp sgt i32 %104, 122
  br i1 %105, label %106, label %107

106:                                              ; preds = %99, %92, %71, %64
  store i32 1, i32* %5, align 4
  br label %107

107:                                              ; preds = %106, %99
  br label %108

108:                                              ; preds = %107
  %109 = load i32, i32* %8, align 4
  %110 = add nsw i32 %109, 1
  store i32 %110, i32* %8, align 4
  br label %48

111:                                              ; preds = %55
  %112 = load i32, i32* %5, align 4
  %113 = icmp eq i32 %112, 1
  br i1 %113, label %114, label %115

114:                                              ; preds = %111
  store i32 0, i32* %5, align 4
  br label %120

115:                                              ; preds = %111
  %116 = load i32, i32* %5, align 4
  %117 = icmp eq i32 %116, 0
  br i1 %117, label %118, label %119

118:                                              ; preds = %115
  store i32 1, i32* %5, align 4
  br label %119

119:                                              ; preds = %118, %115
  br label %120

120:                                              ; preds = %119, %114
  br label %121

121:                                              ; preds = %120, %42, %37
  %122 = load i32, i32* %5, align 4
  %123 = icmp eq i32 %122, 0
  br i1 %123, label %124, label %126

124:                                              ; preds = %121
  %125 = call i32 (i8*, ...) @printf(i8* getelementptr inbounds ([3 x i8], [3 x i8]* @.str, i64 0, i64 0))
  br label %126

126:                                              ; preds = %124, %121
  %127 = load i32, i32* %5, align 4
  %128 = icmp eq i32 %127, 1
  br i1 %128, label %129, label %131

129:                                              ; preds = %126
  %130 = call i32 (i8*, ...) @printf(i8* getelementptr inbounds ([3 x i8], [3 x i8]* @.str.1, i64 0, i64 0))
  br label %131

131:                                              ; preds = %129, %126
  br label %132

132:                                              ; preds = %131
  %133 = load i32, i32* %4, align 4
  %134 = add nsw i32 %133, 1
  store i32 %134, i32* %4, align 4
  br label %13

135:                                              ; preds = %13
  ret i32 0
}

declare dso_local i32 @gets(...) #1

; Function Attrs: nounwind readonly
declare dso_local i32 @atoi(i8*) #2

; Function Attrs: nounwind readonly
declare dso_local i64 @strlen(i8*) #2

declare dso_local i32 @printf(i8*, ...) #1


!llvm.module.flags = !{!0}
!llvm.ident = !{!1}

!0 = !{i32 1, !"wchar_size", i32 4}
!1 = !{!"clang version 10.0.0-4ubuntu1 "}
